; ModuleID = 'source-C-CXX/59/690.c'
source_filename = "source-C-CXX/59/690.c"
target datalayout = "e-m:e-p270:32:32-p271:32:32-p272:64:64-i64:64-f80:128-n8:16:32:64-S128"
target triple = "x86_64-pc-linux-gnu"

@.str = private unnamed_addr constant [3 x i8] c"%d\00", align 1
@.str.1 = private unnamed_addr constant [7 x i8] c"%d %d\0A\00", align 1
@str = private unnamed_addr constant [6 x i8] c"empty\00", align 1

; Function Attrs: nofree nounwind sspstrong uwtable
define dso_local i32 @judge(i32 %0) local_unnamed_addr #0 {
  %2 = and i32 %0, 1
  %3 = icmp eq i32 %2, 0
  br i1 %3, label %17, label %4

4:                                                ; preds = %1
  %5 = sitofp i32 %0 to double
  %6 = tail call double @sqrt(double %5) #5
  %7 = fcmp ult double %6, 3.000000e+00
  br i1 %7, label %17, label %12

8:                                                ; preds = %12
  %9 = sitofp i32 %16 to double
  %10 = tail call double @sqrt(double %5) #5
  %11 = fcmp ult double %10, %9
  br i1 %11, label %17, label %12, !llvm.loop !5

12:                                               ; preds = %4, %8
  %13 = phi i32 [ %16, %8 ], [ 3, %4 ]
  %14 = srem i32 %0, %13
  %15 = icmp eq i32 %14, 0
  %16 = add nuw nsw i32 %13, 2
  br i1 %15, label %17, label %8

17:                                               ; preds = %12, %8, %4, %1
  %18 = phi i32 [ 0, %1 ], [ 1, %4 ], [ 0, %12 ], [ 1, %8 ]
  ret i32 %18
}

; Function Attrs: argmemonly mustprogress nofree nosync nounwind willreturn
declare void @llvm.lifetime.start.p0i8(i64 immarg, i8* nocapture) #1

; Function Attrs: mustprogress nofree nounwind willreturn
declare double @sqrt(double) local_unnamed_addr #2

; Function Attrs: argmemonly mustprogress nofree nosync nounwind willreturn
declare void @llvm.lifetime.end.p0i8(i64 immarg, i8* nocapture) #1

; Function Attrs: nofree nounwind sspstrong uwtable
define dso_local void @main() local_unnamed_addr #0 {
  %1 = alloca i32, align 4
  %2 = bitcast i32* %1 to i8*
  call void @llvm.lifetime.start.p0i8(i64 4, i8* nonnull %2) #5
  %3 = call i32 (i8*, ...) @__isoc99_scanf(i8* getelementptr inbounds ([3 x i8], [3 x i8]* @.str, i64 0, i64 0), i32* nonnull %1)
  %4 = load i32, i32* %1, align 4, !tbaa !7
  %5 = icmp slt i32 %4, 4
  br i1 %5, label %49, label %6

6:                                                ; preds = %0, %41
  %7 = phi i32 [ %42, %41 ], [ 0, %0 ]
  %8 = phi i32 [ %43, %41 ], [ 2, %0 ]
  %9 = and i32 %8, 1
  %10 = icmp eq i32 %9, 0
  br i1 %10, label %41, label %11

11:                                               ; preds = %6
  %12 = sitofp i32 %8 to double
  %13 = call double @sqrt(double %12) #5
  %14 = fcmp ult double %13, 3.000000e+00
  br i1 %14, label %24, label %19

15:                                               ; preds = %19
  %16 = sitofp i32 %23 to double
  %17 = call double @sqrt(double %12) #5
  %18 = fcmp ult double %17, %16
  br i1 %18, label %24, label %19, !llvm.loop !5

19:                                               ; preds = %11, %15
  %20 = phi i32 [ %23, %15 ], [ 3, %11 ]
  %21 = urem i32 %8, %20
  %22 = icmp eq i32 %21, 0
  %23 = add nuw nsw i32 %20, 2
  br i1 %22, label %41, label %15

24:                                               ; preds = %15, %11
  %25 = add nuw nsw i32 %8, 2
  %26 = sitofp i32 %25 to double
  %27 = call double @sqrt(double %26) #5
  %28 = fcmp ult double %27, 3.000000e+00
  br i1 %28, label %38, label %33

29:                                               ; preds = %33
  %30 = sitofp i32 %37 to double
  %31 = call double @sqrt(double %26) #5
  %32 = fcmp ult double %31, %30
  br i1 %32, label %38, label %33, !llvm.loop !5

33:                                               ; preds = %24, %29
  %34 = phi i32 [ %37, %29 ], [ 3, %24 ]
  %35 = urem i32 %25, %34
  %36 = icmp eq i32 %35, 0
  %37 = add nuw nsw i32 %34, 2
  br i1 %36, label %41, label %29

38:                                               ; preds = %29, %24
  %39 = call i32 (i8*, ...) @printf(i8* nonnull dereferenceable(1) getelementptr inbounds ([7 x i8], [7 x i8]* @.str.1, i64 0, i64 0), i32 %8, i32 %25)
  %40 = add nsw i32 %7, 1
  br label %41

41:                                               ; preds = %19, %33, %6, %38
  %42 = phi i32 [ %40, %38 ], [ %7, %6 ], [ %7, %33 ], [ %7, %19 ]
  %43 = add nuw nsw i32 %8, 1
  %44 = load i32, i32* %1, align 4, !tbaa !7
  %45 = add nsw i32 %44, -2
  %46 = icmp slt i32 %8, %45
  br i1 %46, label %6, label %47, !llvm.loop !11

47:                                               ; preds = %41
  %48 = icmp eq i32 %42, 0
  br i1 %48, label %49, label %51

49:                                               ; preds = %0, %47
  %50 = call i32 @puts(i8* nonnull dereferenceable(1) getelementptr inbounds ([6 x i8], [6 x i8]* @str, i64 0, i64 0))
  br label %51

51:                                               ; preds = %49, %47
  call void @llvm.lifetime.end.p0i8(i64 4, i8* nonnull %2) #5
  ret void
}

; Function Attrs: nofree nounwind
declare noundef i32 @__isoc99_scanf(i8* nocapture noundef readonly, ...) local_unnamed_addr #3

; Function Attrs: nofree nounwind
declare noundef i32 @printf(i8* nocapture noundef readonly, ...) local_unnamed_addr #3

; Function Attrs: nofree nounwind
declare noundef i32 @puts(i8* nocapture noundef readonly) local_unnamed_addr #4


!llvm.module.flags = !{!0, !1, !2, !3}
!llvm.ident = !{!4}

!0 = !{i32 1, !"wchar_size", i32 4}
!1 = !{i32 7, !"PIC Level", i32 2}
!2 = !{i32 7, !"PIE Level", i32 2}
!3 = !{i32 7, !"uwtable", i32 1}
!4 = !{!"clang version 13.0.0"}
!5 = distinct !{!5, !6}
!6 = !{!"llvm.loop.mustprogress"}
!7 = !{!8, !8, i64 0}
!8 = !{!"int", !9, i64 0}
!9 = !{!"omnipotent char", !10, i64 0}
!10 = !{!"Simple C/C++ TBAA"}
!11 = distinct !{!11, !6}
